target datalayout = "e-m:e-p270:32:32-p271:32:32-p272:64:64-i64:64-i128:128-f80:128-n8:16:32:64-S128"
target triple = "x86_64-pc-linux-gnu"

%"class.std::unique_ptr" = type { %"struct.std::__uniq_ptr_data" }
%"struct.std::__uniq_ptr_data" = type { %"class.std::__uniq_ptr_impl" }
%"class.std::__uniq_ptr_impl" = type { %"class.std::tuple" }
%"class.std::tuple" = type { %"struct.std::_Tuple_impl" }
%"struct.std::_Tuple_impl" = type { %"struct.std::_Head_base.1" }
%"struct.std::_Head_base.1" = type { ptr }
%"class.g2o::cholmod::Cholmod" = type { %"class.std::unique_ptr" }
%"class.g2o::cholmod::Cholmod::Impl" = type { %struct.cholmod_common_struct, %"struct.g2o::cholmod::CholmodExt", ptr }
%struct.cholmod_common_struct = type { double, double, double, i64, i64, double, i32, i32, i32, i32, i32, i32, i32, [3 x double], [3 x i64], i32, i32, i32, i32, i32, i32, i32, ptr, i32, i32, i32, [10 x %"struct.cholmod_common_struct::cholmod_method_struct"], i32, i32, double, double, i64, i64, i64, i64, i64, ptr, ptr, ptr, ptr, i32, i32, i32, i32, double, double, double, double, i64, i64, i64, double, double, double, double, double, i32, i32, double, double, i32, i32, double, double, double, double, double, double, double, [10 x i64], i32, i64, double, i64, double, i64, i32, ptr, [8 x ptr], [3 x ptr], ptr, [8 x ptr], ptr, i64, ptr, i64, i64, i32, double, double, double, double, double, double, double, double, double, double, double, i64, i64, i64, i64, i64, i64, i64, i64 }
%"struct.cholmod_common_struct::cholmod_method_struct" = type { double, double, double, double, double, [4 x double], i64, [4 x i64], i32, i32, i32, i32, i32, i32, [4 x i64] }
%"struct.g2o::cholmod::CholmodExt" = type { %struct.cholmod_sparse_struct, i64 }
%struct.cholmod_sparse_struct = type { i64, i64, i64, ptr, ptr, ptr, ptr, ptr, i32, i32, i32, i32, i32, i32 }

; Function Attrs: mustprogress nounwind uwtable
define linkonce_odr noundef nonnull align 8 dereferenceable(8) ptr @_ZNSt10_Head_baseILm0EPN3g2o7cholmod7Cholmod4ImplELb0EE7_M_headERKS5_(ptr noundef nonnull align 8 dereferenceable(8) %0) #2 comdat align 2 {
  %2 = alloca ptr, align 8
  store ptr %0, ptr %2, align 8, !tbaa !88
  %3 = load ptr, ptr %2, align 8, !tbaa !88
  %4 = getelementptr inbounds nuw %"struct.std::_Head_base.1", ptr %3, i32 0, i32 0
  ret ptr %4
}

; Function Attrs: mustprogress nounwind uwtable
define linkonce_odr noundef nonnull align 8 dereferenceable(8) ptr @_ZNSt11_Tuple_implILm0EJPN3g2o7cholmod7Cholmod4ImplESt14default_deleteIS3_EEE7_M_headERKS7_(ptr noundef nonnull align 8 dereferenceable(8) %0) #2 comdat align 2 {
  %2 = alloca ptr, align 8
  store ptr %0, ptr %2, align 8, !tbaa !84
  %3 = load ptr, ptr %2, align 8, !tbaa !84
  %4 = call noundef nonnull align 8 dereferenceable(8) ptr @_ZNSt10_Head_baseILm0EPN3g2o7cholmod7Cholmod4ImplELb0EE7_M_headERKS5_(ptr noundef nonnull align 8 dereferenceable(8) %3) #10
  ret ptr %4
}

; Function Attrs: mustprogress nounwind uwtable
define linkonce_odr noundef nonnull align 8 dereferenceable(8) ptr @_ZSt12__get_helperILm0EPN3g2o7cholmod7Cholmod4ImplEJSt14default_deleteIS3_EEERKT0_RKSt11_Tuple_implIXT_EJS7_DpT1_EE(ptr noundef nonnull align 8 dereferenceable(8) %0) #2 comdat {
  %2 = alloca ptr, align 8
  store ptr %0, ptr %2, align 8, !tbaa !84
  %3 = load ptr, ptr %2, align 8, !tbaa !84
  %4 = call noundef nonnull align 8 dereferenceable(8) ptr @_ZNSt11_Tuple_implILm0EJPN3g2o7cholmod7Cholmod4ImplESt14default_deleteIS3_EEE7_M_headERKS7_(ptr noundef nonnull align 8 dereferenceable(8) %3) #10
  ret ptr %4
}

; Function Attrs: mustprogress nounwind uwtable
define linkonce_odr noundef nonnull align 8 dereferenceable(8) ptr @_ZSt3getILm0EJPN3g2o7cholmod7Cholmod4ImplESt14default_deleteIS3_EEERKNSt13tuple_elementIXT_ESt5tupleIJDpT0_EEE4typeERKSB_(ptr noundef nonnull align 8 dereferenceable(8) %0) #2 comdat {
  %2 = alloca ptr, align 8
  store ptr %0, ptr %2, align 8, !tbaa !82
  %3 = load ptr, ptr %2, align 8, !tbaa !82
  %4 = call noundef nonnull align 8 dereferenceable(8) ptr @_ZSt12__get_helperILm0EPN3g2o7cholmod7Cholmod4ImplEJSt14default_deleteIS3_EEERKT0_RKSt11_Tuple_implIXT_EJS7_DpT1_EE(ptr noundef nonnull align 8 dereferenceable(8) %3) #10
  ret ptr %4
}

; Function Attrs: mustprogress nounwind uwtable
define linkonce_odr noundef ptr @_ZNKSt15__uniq_ptr_implIN3g2o7cholmod7Cholmod4ImplESt14default_deleteIS3_EE6_M_ptrEv(ptr noundef nonnull align 8 dereferenceable(8) %0) #2 comdat align 2 {
  %2 = alloca ptr, align 8
  store ptr %0, ptr %2, align 8, !tbaa !80
  %3 = load ptr, ptr %2, align 8
  %4 = getelementptr inbounds nuw %"class.std::__uniq_ptr_impl", ptr %3, i32 0, i32 0
  %5 = call noundef nonnull align 8 dereferenceable(8) ptr @_ZSt3getILm0EJPN3g2o7cholmod7Cholmod4ImplESt14default_deleteIS3_EEERKNSt13tuple_elementIXT_ESt5tupleIJDpT0_EEE4typeERKSB_(ptr noundef nonnull align 8 dereferenceable(8) %4) #10
  %6 = load ptr, ptr %5, align 8, !tbaa !12
  ret ptr %6
}

; Function Attrs: mustprogress nounwind uwtable
define linkonce_odr noundef ptr @_ZNKSt10unique_ptrIN3g2o7cholmod7Cholmod4ImplESt14default_deleteIS3_EE3getEv(ptr noundef nonnull align 8 dereferenceable(8) %0) #2 comdat align 2 {
  %2 = alloca ptr, align 8
  store ptr %0, ptr %2, align 8, !tbaa !8
  %3 = load ptr, ptr %2, align 8
  %4 = getelementptr inbounds nuw %"class.std::unique_ptr", ptr %3, i32 0, i32 0
  %5 = call noundef ptr @_ZNKSt15__uniq_ptr_implIN3g2o7cholmod7Cholmod4ImplESt14default_deleteIS3_EE6_M_ptrEv(ptr noundef nonnull align 8 dereferenceable(8) %4) #10
  ret ptr %5
}

; Function Attrs: mustprogress nounwind uwtable
define linkonce_odr noundef ptr @_ZNKSt10unique_ptrIN3g2o7cholmod7Cholmod4ImplESt14default_deleteIS3_EEptEv(ptr noundef nonnull align 8 dereferenceable(8) %0) #2 comdat align 2 {
  %2 = alloca ptr, align 8
  store ptr %0, ptr %2, align 8, !tbaa !8
  %3 = load ptr, ptr %2, align 8
  %4 = call noundef ptr @_ZNKSt10unique_ptrIN3g2o7cholmod7Cholmod4ImplESt14default_deleteIS3_EE3getEv(ptr noundef nonnull align 8 dereferenceable(8) %3) #10
  ret ptr %4
}

; Function Attrs: mustprogress uwtable
define noundef zeroext i1 @_ZN3g2o7cholmod7Cholmod9factorizeEv(ptr noundef nonnull align 8 dereferenceable(8) %0) #0 align 2 {
  %2 = alloca ptr, align 8
  store ptr %0, ptr %2, align 8, !tbaa !3
  %3 = load ptr, ptr %2, align 8
  %4 = getelementptr inbounds nuw %"class.g2o::cholmod::Cholmod", ptr %3, i32 0, i32 0
  %5 = call noundef ptr @_ZNKSt10unique_ptrIN3g2o7cholmod7Cholmod4ImplESt14default_deleteIS3_EEptEv(ptr noundef nonnull align 8 dereferenceable(8) %4) #10
  %6 = getelementptr inbounds nuw %"class.g2o::cholmod::Cholmod::Impl", ptr %5, i32 0, i32 1
  %7 = getelementptr inbounds nuw %"class.g2o::cholmod::Cholmod", ptr %3, i32 0, i32 0
  %8 = call noundef ptr @_ZNKSt10unique_ptrIN3g2o7cholmod7Cholmod4ImplESt14default_deleteIS3_EEptEv(ptr noundef nonnull align 8 dereferenceable(8) %7) #10
  %9 = getelementptr inbounds nuw %"class.g2o::cholmod::Cholmod::Impl", ptr %8, i32 0, i32 2
  %10 = load ptr, ptr %9, align 8, !tbaa !14
  %11 = getelementptr inbounds nuw %"class.g2o::cholmod::Cholmod", ptr %3, i32 0, i32 0
  %12 = call noundef ptr @_ZNKSt10unique_ptrIN3g2o7cholmod7Cholmod4ImplESt14default_deleteIS3_EEptEv(ptr noundef nonnull align 8 dereferenceable(8) %11) #10
  %13 = getelementptr inbounds nuw %"class.g2o::cholmod::Cholmod::Impl", ptr %12, i32 0, i32 0
  %14 = call i32 @cholmod_factorize(ptr noundef %6, ptr noundef %10, ptr noundef %13)
  %15 = getelementptr inbounds nuw %"class.g2o::cholmod::Cholmod", ptr %3, i32 0, i32 0
  %16 = call noundef ptr @_ZNKSt10unique_ptrIN3g2o7cholmod7Cholmod4ImplESt14default_deleteIS3_EEptEv(ptr noundef nonnull align 8 dereferenceable(8) %15) #10
  %17 = getelementptr inbounds nuw %"class.g2o::cholmod::Cholmod::Impl", ptr %16, i32 0, i32 0
  %18 = getelementptr inbounds nuw %struct.cholmod_common_struct, ptr %17, i32 0, i32 43
  %19 = load i32, ptr %18, align 4, !tbaa !75
  %20 = icmp eq i32 %19, 0
  ret i1 %20
}