; Function Attrs: mustprogress uwtable
define noundef zeroext i1 @_ZN3g2o7cholmod7Cholmod9factorizeEv(ptr noundef nonnull readonly align 8 captures(none) dereferenceable(8) %0) local_unnamed_addr #0 align 2 {
  %2 = load ptr, ptr %0, align 8, !tbaa !29
  %3 = getelementptr inbounds nuw i8, ptr %2, i64 2664
  %4 = getelementptr inbounds nuw i8, ptr %2, i64 2760
  %5 = load ptr, ptr %4, align 8, !tbaa !20
  %6 = tail call i32 @cholmod_factorize(ptr noundef nonnull %3, ptr noundef %5, ptr noundef %2)
  %7 = load ptr, ptr %0, align 8, !tbaa !29
  %8 = getelementptr inbounds nuw i8, ptr %7, i64 1972
  %9 = load i32, ptr %8, align 4, !tbaa !61
  %10 = icmp eq i32 %9, 0
  ret i1 %10
}